target datalayout = "e-m:e-p270:32:32-p271:32:32-p272:64:64-i64:64-i128:128-f80:128-n8:16:32:64-S128"
target triple = "x86_64-pc-linux-gnu"

%struct.timeval = type { i64, i64 }
%struct.evhttp = type { %struct.anon.9, %struct.boundq, %struct.httpcbq, %struct.evconq, %struct.evwsq, i32, i32, %struct.vhostsq, %struct.aliasq, ptr, %struct.timeval, %struct.timeval, i64, i64, i32, ptr, i32, ptr, ptr, ptr, ptr, ptr, ptr, ptr, ptr, ptr, ptr }
%struct.anon.9 = type { ptr, ptr }
%struct.boundq = type { ptr, ptr }
%struct.httpcbq = type { ptr, ptr }
%struct.evconq = type { ptr, ptr }
%struct.evwsq = type { ptr, ptr }
%struct.vhostsq = type { ptr, ptr }
%struct.aliasq = type { ptr, ptr }
%struct.evhttp_bound_socket = type { %struct.anon.11, ptr, ptr, ptr, ptr }
%struct.anon.11 = type { ptr, ptr }

; Function Attrs: nounwind uwtable
define void @evhttp_del_accept_socket(ptr noundef %0, ptr noundef %1) #0 {
  %3 = alloca ptr, align 8
  %4 = alloca ptr, align 8
  store ptr %0, ptr %3, align 8
  store ptr %1, ptr %4, align 8
  br label %5

5:                                                ; preds = %2
  %6 = load ptr, ptr %4, align 8
  %7 = getelementptr inbounds nuw %struct.evhttp_bound_socket, ptr %6, i32 0, i32 0
  %8 = getelementptr inbounds nuw %struct.anon.11, ptr %7, i32 0, i32 0
  %9 = load ptr, ptr %8, align 8
  %10 = icmp ne ptr %9, null
  br i1 %10, label %11, label %22

11:                                               ; preds = %5
  %12 = load ptr, ptr %4, align 8
  %13 = getelementptr inbounds nuw %struct.evhttp_bound_socket, ptr %12, i32 0, i32 0
  %14 = getelementptr inbounds nuw %struct.anon.11, ptr %13, i32 0, i32 1
  %15 = load ptr, ptr %14, align 8
  %16 = load ptr, ptr %4, align 8
  %17 = getelementptr inbounds nuw %struct.evhttp_bound_socket, ptr %16, i32 0, i32 0
  %18 = getelementptr inbounds nuw %struct.anon.11, ptr %17, i32 0, i32 0
  %19 = load ptr, ptr %18, align 8
  %20 = getelementptr inbounds nuw %struct.evhttp_bound_socket, ptr %19, i32 0, i32 0
  %21 = getelementptr inbounds nuw %struct.anon.11, ptr %20, i32 0, i32 1
  store ptr %15, ptr %21, align 8
  br label %30

22:                                               ; preds = %5
  %23 = load ptr, ptr %4, align 8
  %24 = getelementptr inbounds nuw %struct.evhttp_bound_socket, ptr %23, i32 0, i32 0
  %25 = getelementptr inbounds nuw %struct.anon.11, ptr %24, i32 0, i32 1
  %26 = load ptr, ptr %25, align 8
  %27 = load ptr, ptr %3, align 8
  %28 = getelementptr inbounds nuw %struct.evhttp, ptr %27, i32 0, i32 1
  %29 = getelementptr inbounds nuw %struct.boundq, ptr %28, i32 0, i32 1
  store ptr %26, ptr %29, align 8
  br label %30

30:                                               ; preds = %22, %11
  %31 = load ptr, ptr %4, align 8
  %32 = getelementptr inbounds nuw %struct.evhttp_bound_socket, ptr %31, i32 0, i32 0
  %33 = getelementptr inbounds nuw %struct.anon.11, ptr %32, i32 0, i32 0
  %34 = load ptr, ptr %33, align 8
  %35 = load ptr, ptr %4, align 8
  %36 = getelementptr inbounds nuw %struct.evhttp_bound_socket, ptr %35, i32 0, i32 0
  %37 = getelementptr inbounds nuw %struct.anon.11, ptr %36, i32 0, i32 1
  %38 = load ptr, ptr %37, align 8
  store ptr %34, ptr %38, align 8
  br label %39

39:                                               ; preds = %30
  %40 = load ptr, ptr %4, align 8
  %41 = getelementptr inbounds nuw %struct.evhttp_bound_socket, ptr %40, i32 0, i32 4
  %42 = load ptr, ptr %41, align 8
  call void @evconnlistener_free(ptr noundef %42)
  %43 = load ptr, ptr %4, align 8
  call void @event_mm_free_(ptr noundef %43)
  ret void
}