; Function Attrs: nounwind uwtable
define void @evhttp_del_accept_socket(ptr noundef writeonly captures(none) %0, ptr noundef %1) local_unnamed_addr #0 {
  %3 = load ptr, ptr %1, align 8
  %.not = icmp eq ptr %3, null
  %4 = getelementptr inbounds nuw i8, ptr %1, i64 8
  %5 = load ptr, ptr %4, align 8
  br i1 %.not, label %8, label %6

6:                                                ; preds = %2
  %7 = getelementptr inbounds nuw i8, ptr %3, i64 8
  store ptr %5, ptr %7, align 8
  br label %10

8:                                                ; preds = %2
  %9 = getelementptr inbounds nuw i8, ptr %0, i64 24
  store ptr %5, ptr %9, align 8
  br label %10

10:                                               ; preds = %8, %6
  %11 = load ptr, ptr %1, align 8
  store ptr %11, ptr %5, align 8
  %12 = getelementptr inbounds nuw i8, ptr %1, i64 40
  %13 = load ptr, ptr %12, align 8
  tail call void @evconnlistener_free(ptr noundef %13) #18
  tail call void @event_mm_free_(ptr noundef nonnull %1) #18
  ret void
}